Certificate:
    Data:
        Version: 3 (0x2)
        Serial Number: 1245116545 (0x4a36f881)
        Signature Algorithm: sha256WithRSAEncryption
        Issuer: C = Unknown, ST = Unknown, L = Unknown, O = gw, OU = nt, CN = nt gateway
        Validity
            Not Before: Aug 22 22:34:22 2020 GMT
            Not After : Aug 20 22:34:22 2030 GMT
        Subject: C = Unknown, ST = Unknown, L = Unknown, O = gw, OU = nt, CN = nt gateway
        Subject Public Key Info:
            Public Key Algorithm: rsaEncryption
                RSA Public-Key: (2048 bit)
                Modulus:
                    00:9a:8e:86:15:59:31:46:18:97:57:a5:5c:1c:9a:
                    64:6b:64:af:16:0f:ae:b3:55:6b:18:38:28:73:aa:
                    dc:3c:a4:05:2b:03:6f:27:88:cd:f6:d6:79:1d:ed:
                    98:d9:eb:7d:f4:4f:44:b7:4a:33:42:fa:80:ec:eb:
                    af:d2:06:56:7d:2a:ae:4b:3c:12:d7:0e:03:7b:ce:
                    a2:e1:46:8b:79:80:04:a2:d6:70:ed:cc:6c:21:83:
                    e4:30:aa:fa:da:72:83:8c:cf:e4:8a:e2:76:b5:56:
                    22:0d:30:1c:4c:70:23:c5:47:de:55:06:02:f1:01:
                    dd:11:14:43:79:b9:08:d6:4c:6a:ff:cd:48:c9:71:
                    fa:51:f5:dd:c4:7c:1c:24:b9:c2:e2:df:e5:ed:05:
                    96:eb:04:63:ea:b5:b9:25:6e:8f:ba:1f:89:08:73:
                    cb:a8:6f:e3:36:f2:1c:33:e0:f8:6c:00:81:ba:04:
                    03:9f:b2:da:02:e7:34:93:42:e8:e7:61:47:dc:dc:
                    a2:ac:08:51:4d:77:39:22:88:72:ec:1e:d8:89:5a:
                    b2:04:a0:64:97:e2:93:3e:d9:98:d4:79:cc:56:27:
                    77:18:64:c9:77:85:d5:f5:b8:f8:c6:19:0c:2f:90:
                    f3:ff:3d:61:32:3f:48:35:d0:61:00:c4:15:91:7d:
                    dc:23
                Exponent: 65537 (0x10001)
        X509v3 extensions:
            X509v3 Subject Key Identifier: 
                61:81:AC:D5:EE:56:C6:3F:E2:8C:59:C0:49:FF:31:3D:99:46:DD:7C
            X509v3 Subject Alternative Name: 
                DNS:localhost, IP Address:127.0.0.1
    Signature Algorithm: sha256WithRSAEncryption
         56:e3:73:37:75:26:b6:ad:4e:1f:9b:dd:de:48:ec:bd:33:83:
         ca:07:08:93:2b:35:6d:e8:57:f1:55:e0:8a:51:f0:5c:ae:2b:
         06:84:7a:e4:cf:7f:39:24:41:02:b3:1d:73:fd:33:1d:20:45:
         ae:90:8b:3f:f6:14:d7:69:0f:84:47:fc:4e:a3:dd:f4:86:88:
         db:8f:e0:cb:46:9a:3f:94:c9:b4:73:e9:11:0d:8d:3a:f9:0a:
         67:06:be:3b:bb:90:3f:e5:23:9d:6f:b9:e1:80:ba:a3:62:f6:
         3c:a9:07:d8:ce:eb:de:82:b0:d7:22:26:48:f0:73:52:64:03:
         cc:5b:4b:fa:3e:87:c5:17:f0:2d:a4:98:69:9e:11:0a:69:0c:
         a9:ed:01:94:48:13:c7:f1:d0:7c:97:7e:c7:79:de:c2:6f:18:
         e9:c1:77:06:cf:74:12:ba:c7:10:92:27:b4:5a:17:07:ed:c1:
         09:97:7f:13:bc:34:94:73:ec:51:32:6c:41:ac:47:33:13:87:
         e6:21:ab:ba:d0:53:12:20:06:a3:e2:c9:4d:db:dd:5d:96:65:
         1b:04:4a:4c:df:9a:c8:0f:39:d5:32:fb:11:5a:ac:cb:c9:c2:
         1e:40:38:c5:85:de:d7:47:a1:5d:b2:12:8f:79:bd:cb:ac:06:
         93:3c:42:2e
-----BEGIN CERTIFICATE-----
MIIDhTCCAm2gAwIBAgIESjb4gTANBgkqhkiG9w0BAQsFADBlMRAwDgYDVQQGEwdV
bmtub3duMRAwDgYDVQQIEwdVbmtub3duMRAwDgYDVQQHEwdVbmtub3duMQswCQYD
VQQKEwJndzELMAkGA1UECxMCbnQxEzARBgNVBAMTCm50IGdhdGV3YXkwHhcNMjAw
ODIyMjIzNDIyWhcNMzAwODIwMjIzNDIyWjBlMRAwDgYDVQQGEwdVbmtub3duMRAw
DgYDVQQIEwdVbmtub3duMRAwDgYDVQQHEwdVbmtub3duMQswCQYDVQQKEwJndzEL
MAkGA1UECxMCbnQxEzARBgNVBAMTCm50IGdhdGV3YXkwggEiMA0GCSqGSIb3DQEB
AQUAA4IBDwAwggEKAoIBAQCajoYVWTFGGJdXpVwcmmRrZK8WD66zVWsYOChzqtw8
pAUrA28niM321nkd7ZjZ6330T0S3SjNC+oDs66/SBlZ9Kq5LPBLXDgN7zqLhRot5
gASi1nDtzGwhg+QwqvracoOMz+SK4na1ViINMBxMcCPFR95VBgLxAd0RFEN5uQjW
TGr/zUjJcfpR9d3EfBwkucLi3+XtBZbrBGPqtbklbo+6H4kIc8uob+M28hwz4Phs
AIG6BAOfstoC5zSTQujnYUfc3KKsCFFNdzkiiHLsHtiJWrIEoGSX4pM+2ZjUecxW
J3cYZMl3hdX1uPjGGQwvkPP/PWEyP0g10GEAxBWRfdwjAgMBAAGjPTA7MB0GA1Ud
DgQWBBRhgazV7lbGP+KMWcBJ/zE9mUbdfDAaBgNVHREEEzARgglsb2NhbGhvc3SH
BH8AAAEwDQYJKoZIhvcNAQELBQADggEBAFbjczd1JratTh+b3d5I7L0zg8oHCJMr
NW3oV/FV4IpR8FyuKwaEeuTPfzkkQQKzHXP9Mx0gRa6Qiz/2FNdpD4RH/E6j3fSG
iNuP4MtGmj+UybRz6RENjTr5CmcGvju7kD/lI51vueGAuqNi9jypB9jO696CsNci
Jkjwc1JkA8xbS/o+h8UX8C2kmGmeEQppDKntAZRIE8fx0HyXfsd53sJvGOnBdwbP
dBK6xxCSJ7RaFwftwQmXfxO8NJRz7FEybEGsRzMTh+Yhq7rQUxIgBqPiyU3b3V2W
ZRsESkzfmsgPOdUy+xFarMvJwh5AOMWF3tdHoV2yEo95vcusBpM8Qi4=
-----END CERTIFICATE-----
